target datalayout = "e-m:e-p270:32:32-p271:32:32-p272:64:64-i64:64-i128:128-f80:128-n8:16:32:64-S128"
target triple = "x86_64-pc-linux-gnu"

%"struct.duckdb::LogicalType" = type { i8, i8, %"class.duckdb::shared_ptr.168" }
%"class.duckdb::shared_ptr.168" = type { %"class.std::shared_ptr.169" }
%"class.std::shared_ptr.169" = type { %"class.std::__shared_ptr.170" }
%"class.std::__shared_ptr.170" = type { ptr, %"class.std::__shared_count" }
%"class.std::__shared_count" = type { ptr }
%"class.std::__cxx11::basic_string" = type { %"struct.std::__cxx11::basic_string<char>::_Alloc_hider", i64, %union.anon }
%"struct.std::__cxx11::basic_string<char>::_Alloc_hider" = type { ptr }
%union.anon = type { i64, [8 x i8] }
%"class.duckdb::optional_idx" = type { i64 }
%"struct.duckdb::ParquetColumnSchema" = type { i32, %"class.std::__cxx11::basic_string", %"struct.duckdb::LogicalType", i64, i64, i64, i64, %"class.duckdb::optional_idx", i32, i32, i32, i32, %"class.duckdb::vector.172" }
%"class.duckdb::vector.172" = type { %"class.std::vector.173" }
%"class.std::vector.173" = type { %"struct.std::_Vector_base.174" }
%"struct.std::_Vector_base.174" = type { %"struct.std::_Vector_base<duckdb::ParquetColumnSchema, std::allocator<duckdb::ParquetColumnSchema>>::_Vector_impl" }
%"struct.std::_Vector_base<duckdb::ParquetColumnSchema, std::allocator<duckdb::ParquetColumnSchema>>::_Vector_impl" = type { %"struct.std::_Vector_base<duckdb::ParquetColumnSchema, std::allocator<duckdb::ParquetColumnSchema>>::_Vector_impl_data" }
%"struct.std::_Vector_base<duckdb::ParquetColumnSchema, std::allocator<duckdb::ParquetColumnSchema>>::_Vector_impl_data" = type { ptr, ptr, ptr }

; Function Attrs: mustprogress nounwind uwtable
define linkonce_odr noundef i64 @_ZNSt14numeric_limitsImE3maxEv() #7 comdat align 2 {
  ret i64 -1
}

; Function Attrs: mustprogress nounwind uwtable
define linkonce_odr noundef i64 @_ZN6duckdb13NumericLimitsImE7MaximumEv() #7 comdat align 2 {
  %1 = call noundef i64 @_ZNSt14numeric_limitsImE3maxEv() #3
  ret i64 %1
}

; Function Attrs: mustprogress nounwind uwtable
define linkonce_odr noundef i64 @_ZN6duckdb8MinValueImEET_S1_S1_(i64 noundef %0, i64 noundef %1) #7 comdat {
  %3 = alloca i64, align 8
  %4 = alloca i64, align 8
  store i64 %0, ptr %3, align 8, !tbaa !206
  store i64 %1, ptr %4, align 8, !tbaa !206
  %5 = load i64, ptr %3, align 8, !tbaa !206
  %6 = load i64, ptr %4, align 8, !tbaa !206
  %7 = icmp ult i64 %5, %6
  br i1 %7, label %8, label %10

8:                                                ; preds = %2
  %9 = load i64, ptr %3, align 8, !tbaa !206
  br label %12

10:                                               ; preds = %2
  %11 = load i64, ptr %4, align 8, !tbaa !206
  br label %12

12:                                               ; preds = %10, %8
  %13 = phi i64 [ %9, %8 ], [ %11, %10 ]
  ret i64 %13
}

; Function Attrs: mustprogress uwtable
define noundef double @_ZN6duckdb19ParquetDecimalUtils16ReadDecimalValueIdEET_PKhmRKNS_19ParquetColumnSchemaE(ptr noundef %0, i64 noundef %1, ptr noundef nonnull align 8 dereferenceable(144) %2) #4 align 2 {
  %4 = alloca double, align 8
  %5 = alloca ptr, align 8
  %6 = alloca i64, align 8
  %7 = alloca ptr, align 8
  %8 = alloca double, align 8
  %9 = alloca i8, align 1
  %10 = alloca i64, align 8
  %11 = alloca i32, align 4
  %12 = alloca i64, align 8
  %13 = alloca i64, align 8
  %14 = alloca ptr, align 8
  %15 = alloca i64, align 8
  %16 = alloca i8, align 1
  store ptr %0, ptr %5, align 8, !tbaa !210
  store i64 %1, ptr %6, align 8, !tbaa !206
  store ptr %2, ptr %7, align 8, !tbaa !185
  call void @llvm.lifetime.start.p0(i64 8, ptr %8) #3
  store double 0.000000e+00, ptr %8, align 8, !tbaa !248
  call void @llvm.lifetime.start.p0(i64 1, ptr %9) #3
  %17 = load ptr, ptr %5, align 8, !tbaa !210
  %18 = load i8, ptr %17, align 1, !tbaa !223
  %19 = zext i8 %18 to i32
  %20 = and i32 %19, 128
  %21 = icmp eq i32 %20, 0
  %22 = zext i1 %21 to i8
  store i8 %22, ptr %9, align 1, !tbaa !212
  call void @llvm.lifetime.start.p0(i64 8, ptr %10) #3
  store i64 0, ptr %10, align 8, !tbaa !206
  br label %23

23:                                               ; preds = %75, %3
  %24 = load i64, ptr %10, align 8, !tbaa !206
  %25 = load i64, ptr %6, align 8, !tbaa !206
  %26 = icmp ult i64 %24, %25
  br i1 %26, label %28, label %27

27:                                               ; preds = %23
  store i32 2, ptr %11, align 4
  call void @llvm.lifetime.end.p0(i64 8, ptr %10) #3
  br label %78

28:                                               ; preds = %23
  call void @llvm.lifetime.start.p0(i64 8, ptr %12) #3
  %29 = load i64, ptr %6, align 8, !tbaa !206
  %30 = load i64, ptr %10, align 8, !tbaa !206
  %31 = sub i64 %29, %30
  %32 = call noundef i64 @_ZN6duckdb8MinValueImEET_S1_S1_(i64 noundef 8, i64 noundef %31)
  store i64 %32, ptr %12, align 8, !tbaa !206
  call void @llvm.lifetime.start.p0(i64 8, ptr %13) #3
  store i64 0, ptr %13, align 8, !tbaa !206
  call void @llvm.lifetime.start.p0(i64 8, ptr %14) #3
  store ptr %13, ptr %14, align 8, !tbaa !210
  call void @llvm.lifetime.start.p0(i64 8, ptr %15) #3
  store i64 0, ptr %15, align 8, !tbaa !206
  br label %33

33:                                               ; preds = %62, %28
  %34 = load i64, ptr %15, align 8, !tbaa !206
  %35 = load i64, ptr %12, align 8, !tbaa !206
  %36 = icmp ult i64 %34, %35
  br i1 %36, label %38, label %37

37:                                               ; preds = %33
  store i32 5, ptr %11, align 4
  call void @llvm.lifetime.end.p0(i64 8, ptr %15) #3
  br label %65

38:                                               ; preds = %33
  call void @llvm.lifetime.start.p0(i64 1, ptr %16) #3
  %39 = load ptr, ptr %5, align 8, !tbaa !210
  %40 = load i64, ptr %10, align 8, !tbaa !206
  %41 = load i64, ptr %15, align 8, !tbaa !206
  %42 = add i64 %40, %41
  %43 = getelementptr inbounds nuw i8, ptr %39, i64 %42
  %44 = load i8, ptr %43, align 1, !tbaa !223
  store i8 %44, ptr %16, align 1, !tbaa !223
  %45 = load i8, ptr %9, align 1, !tbaa !212, !range !213, !noundef !214
  %46 = trunc i8 %45 to i1
  br i1 %46, label %47, label %50

47:                                               ; preds = %38
  %48 = load i8, ptr %16, align 1, !tbaa !223
  %49 = zext i8 %48 to i32
  br label %54

50:                                               ; preds = %38
  %51 = load i8, ptr %16, align 1, !tbaa !223
  %52 = zext i8 %51 to i32
  %53 = xor i32 %52, 255
  br label %54

54:                                               ; preds = %50, %47
  %55 = phi i32 [ %49, %47 ], [ %53, %50 ]
  %56 = trunc i32 %55 to i8
  %57 = load ptr, ptr %14, align 8, !tbaa !210
  %58 = load i64, ptr %15, align 8, !tbaa !206
  %59 = sub i64 8, %58
  %60 = sub i64 %59, 1
  %61 = getelementptr inbounds nuw i8, ptr %57, i64 %60
  store i8 %56, ptr %61, align 1, !tbaa !223
  call void @llvm.lifetime.end.p0(i64 1, ptr %16) #3
  br label %62

62:                                               ; preds = %54
  %63 = load i64, ptr %15, align 8, !tbaa !206
  %64 = add i64 %63, 1
  store i64 %64, ptr %15, align 8, !tbaa !206
  br label %33, !llvm.loop !250

65:                                               ; preds = %37
  %66 = call noundef i64 @_ZN6duckdb13NumericLimitsImE7MaximumEv()
  %67 = uitofp i64 %66 to double
  %68 = fadd double %67, 1.000000e+00
  %69 = load double, ptr %8, align 8, !tbaa !248
  %70 = fmul double %69, %68
  store double %70, ptr %8, align 8, !tbaa !248
  %71 = load i64, ptr %13, align 8, !tbaa !206
  %72 = uitofp i64 %71 to double
  %73 = load double, ptr %8, align 8, !tbaa !248
  %74 = fadd double %73, %72
  store double %74, ptr %8, align 8, !tbaa !248
  call void @llvm.lifetime.end.p0(i64 8, ptr %14) #3
  call void @llvm.lifetime.end.p0(i64 8, ptr %13) #3
  call void @llvm.lifetime.end.p0(i64 8, ptr %12) #3
  br label %75

75:                                               ; preds = %65
  %76 = load i64, ptr %10, align 8, !tbaa !206
  %77 = add i64 %76, 8
  store i64 %77, ptr %10, align 8, !tbaa !206
  br label %23, !llvm.loop !252

78:                                               ; preds = %27
  %79 = load i8, ptr %9, align 1, !tbaa !212, !range !213, !noundef !214
  %80 = trunc i8 %79 to i1
  br i1 %80, label %93, label %81

81:                                               ; preds = %78
  %82 = load double, ptr %8, align 8, !tbaa !248
  %83 = fadd double %82, 1.000000e+00
  store double %83, ptr %8, align 8, !tbaa !248
  %84 = load ptr, ptr %7, align 8, !tbaa !185
  %85 = getelementptr inbounds nuw %"struct.duckdb::ParquetColumnSchema", ptr %84, i32 0, i32 9
  %86 = load i32, ptr %85, align 4, !tbaa !253
  %87 = uitofp i32 %86 to double
  %88 = call double @pow(double noundef 1.000000e+01, double noundef %87) #3, !tbaa !254
  %89 = load double, ptr %8, align 8, !tbaa !248
  %90 = fdiv double %89, %88
  store double %90, ptr %8, align 8, !tbaa !248
  %91 = load double, ptr %8, align 8, !tbaa !248
  %92 = fneg double %91
  store double %92, ptr %4, align 8
  store i32 1, ptr %11, align 4
  br label %102

93:                                               ; preds = %78
  %94 = load ptr, ptr %7, align 8, !tbaa !185
  %95 = getelementptr inbounds nuw %"struct.duckdb::ParquetColumnSchema", ptr %94, i32 0, i32 9
  %96 = load i32, ptr %95, align 4, !tbaa !253
  %97 = uitofp i32 %96 to double
  %98 = call double @pow(double noundef 1.000000e+01, double noundef %97) #3, !tbaa !254
  %99 = load double, ptr %8, align 8, !tbaa !248
  %100 = fdiv double %99, %98
  store double %100, ptr %8, align 8, !tbaa !248
  %101 = load double, ptr %8, align 8, !tbaa !248
  store double %101, ptr %4, align 8
  store i32 1, ptr %11, align 4
  br label %102

102:                                              ; preds = %93, %81
  call void @llvm.lifetime.end.p0(i64 1, ptr %9) #3
  call void @llvm.lifetime.end.p0(i64 8, ptr %8) #3
  %103 = load double, ptr %4, align 8
  ret double %103
}