; Function Attrs: mustprogress nofree nounwind memory(write, argmem: readwrite) uwtable
define noundef double @_ZN6duckdb19ParquetDecimalUtils16ReadDecimalValueIdEET_PKhmRKNS_19ParquetColumnSchemaE(ptr noundef readonly captures(none) %0, i64 noundef %1, ptr noundef nonnull readonly align 8 captures(none) dereferenceable(144) %2) local_unnamed_addr #8 align 2 {
  %4 = alloca i64, align 8
  %5 = load i8, ptr %0, align 1, !tbaa !191
  %6 = icmp slt i8 %5, 0
  %.not = icmp eq i64 %1, 0
  br i1 %.not, label %._crit_edge36, label %.lr.ph35

.lr.ph35:                                         ; preds = %3
  %.lobit = ashr i8 %5, 7
  br label %.lr.ph

._crit_edge36:                                    ; preds = %._crit_edge, %3
  %.028.lcssa = phi double [ 0.000000e+00, %3 ], [ %10, %._crit_edge ]
  br i1 %6, label %20, label %28

.lr.ph:                                           ; preds = %._crit_edge, %.lr.ph35
  %indvars.iv = phi i64 [ %1, %.lr.ph35 ], [ %indvars.iv.next, %._crit_edge ]
  %.02833 = phi double [ 0.000000e+00, %.lr.ph35 ], [ %10, %._crit_edge ]
  %.02932 = phi i64 [ 0, %.lr.ph35 ], [ %11, %._crit_edge ]
  %umin = tail call i64 @llvm.umin.i64(i64 %indvars.iv, i64 8)
  %umax = tail call i64 @llvm.umax.i64(i64 %umin, i64 1)
  call void @llvm.lifetime.start.p0(i64 8, ptr nonnull %4) #25
  store i64 0, ptr %4, align 8, !tbaa !216
  %7 = getelementptr i8, ptr %0, i64 %.02932
  br label %13

._crit_edge:                                      ; preds = %13
  %.pre = load i64, ptr %4, align 8, !tbaa !216
  %8 = fmul double %.02833, 0x43F0000000000000
  %9 = uitofp i64 %.pre to double
  %10 = fadd double %8, %9
  call void @llvm.lifetime.end.p0(i64 8, ptr nonnull %4) #25
  %11 = add i64 %.02932, 8
  %12 = icmp ult i64 %11, %1
  %indvars.iv.next = add i64 %indvars.iv, -8
  br i1 %12, label %.lr.ph, label %._crit_edge36, !llvm.loop !217

13:                                               ; preds = %.lr.ph, %13
  %.02731 = phi i64 [ 0, %.lr.ph ], [ %19, %13 ]
  %14 = getelementptr i8, ptr %7, i64 %.02731
  %15 = load i8, ptr %14, align 1, !tbaa !191
  %16 = xor i8 %15, %.lobit
  %17 = sub nuw nsw i64 7, %.02731
  %18 = getelementptr inbounds nuw i8, ptr %4, i64 %17
  store i8 %16, ptr %18, align 1, !tbaa !191
  %19 = add nuw nsw i64 %.02731, 1
  %exitcond.not = icmp eq i64 %19, %umax
  br i1 %exitcond.not, label %._crit_edge, label %13, !llvm.loop !218

20:                                               ; preds = %._crit_edge36
  %21 = fadd double %.028.lcssa, 1.000000e+00
  %22 = getelementptr inbounds nuw i8, ptr %2, i64 108
  %23 = load i32, ptr %22, align 4, !tbaa !219
  %24 = uitofp i32 %23 to double
  %25 = tail call double @pow(double noundef 1.000000e+01, double noundef %24) #25, !tbaa !220
  %26 = fneg double %21
  %27 = fdiv double %26, %25
  br label %34

28:                                               ; preds = %._crit_edge36
  %29 = getelementptr inbounds nuw i8, ptr %2, i64 108
  %30 = load i32, ptr %29, align 4, !tbaa !219
  %31 = uitofp i32 %30 to double
  %32 = tail call double @pow(double noundef 1.000000e+01, double noundef %31) #25, !tbaa !220
  %33 = fdiv double %.028.lcssa, %32
  br label %34

34:                                               ; preds = %28, %20
  %.0 = phi double [ %33, %28 ], [ %27, %20 ]
  ret double %.0
}